; Function Attrs: nounwind uwtable
define dso_local ptr @Py_CompileStringObject(ptr noundef %0, ptr noundef %1, i32 noundef %2, ptr noundef %3, i32 noundef %4) local_unnamed_addr #0 {
  %6 = tail call ptr @_PyArena_New() #8
  %7 = icmp eq ptr %6, null
  br i1 %7, label %25, label %8

8:                                                ; preds = %5
  %9 = tail call ptr @_PyParser_ASTFromString(ptr noundef %0, ptr noundef %1, i32 noundef %2, ptr noundef %3, ptr noundef nonnull %6) #8
  %10 = icmp eq ptr %9, null
  br i1 %10, label %.sink.split, label %11

11:                                               ; preds = %8
  %.not = icmp eq ptr %3, null
  br i1 %.not, label %23, label %12

12:                                               ; preds = %11
  %13 = load i32, ptr %3, align 4, !tbaa !24
  %14 = and i32 %13, 1024
  %.not30 = icmp eq i32 %14, 0
  br i1 %.not30, label %23, label %15

15:                                               ; preds = %12
  %16 = and i32 %13, 33792
  %17 = icmp eq i32 %16, 33792
  br i1 %17, label %18, label %21

18:                                               ; preds = %15
  %19 = tail call i32 @_PyCompile_AstOptimize(ptr noundef nonnull %9, ptr noundef %1, ptr noundef nonnull %3, i32 noundef %4, ptr noundef nonnull %6) #8
  %20 = icmp slt i32 %19, 0
  br i1 %20, label %.sink.split, label %21

21:                                               ; preds = %18, %15
  %22 = tail call ptr @PyAST_mod2obj(ptr noundef nonnull %9) #8
  br label %.sink.split

23:                                               ; preds = %12, %11
  %24 = tail call ptr @_PyAST_Compile(ptr noundef nonnull %9, ptr noundef %1, ptr noundef %3, i32 noundef %4, ptr noundef nonnull %6) #8
  br label %.sink.split

.sink.split:                                      ; preds = %18, %8, %21, %23
  %.0.ph = phi ptr [ %24, %23 ], [ %22, %21 ], [ null, %8 ], [ null, %18 ]
  tail call void @_PyArena_Free(ptr noundef nonnull %6) #8
  br label %25

25:                                               ; preds = %.sink.split, %5
  %.0 = phi ptr [ null, %5 ], [ %.0.ph, %.sink.split ]
  ret ptr %.0
}